; Function Attrs: nounwind sspstrong uwtable
define dso_local i64 @qemu_iovec_memset(ptr noundef readonly captures(none) %qiov, i64 noundef %offset, i32 noundef %fillc, i64 noundef %bytes) local_unnamed_addr #0 {
entry:
  %0 = load ptr, ptr %qiov, align 8
  %niov = getelementptr inbounds nuw i8, ptr %qiov, i64 8
  %1 = load i32, ptr %niov, align 8
  %2 = or i64 %bytes, %offset
  %or.cond24.i = icmp ne i64 %2, 0
  %cmp125.i = icmp ne i32 %1, 0
  %or.cond2126.i = and i1 %or.cond24.i, %cmp125.i
  br i1 %or.cond2126.i, label %for.body.lr.ph.i, label %for.end.i

for.body.lr.ph.i:                                 ; preds = %entry
  %3 = trunc i32 %fillc to i8
  %4 = zext i32 %1 to i64
  br label %for.body.i

for.body.i:                                       ; preds = %for.inc.i, %for.body.lr.ph.i
  %indvars.iv.i = phi i64 [ 0, %for.body.lr.ph.i ], [ %indvars.iv.next.i, %for.inc.i ]
  %offset.addr.029.i = phi i64 [ %offset, %for.body.lr.ph.i ], [ %offset.addr.1.i, %for.inc.i ]
  %done.028.i = phi i64 [ 0, %for.body.lr.ph.i ], [ %done.1.i, %for.inc.i ]
  %arrayidx.i = getelementptr %struct.iovec, ptr %0, i64 %indvars.iv.i
  %iov_len.i = getelementptr inbounds nuw i8, ptr %arrayidx.i, i64 8
  %5 = load i64, ptr %iov_len.i, align 8
  %cmp2.i = icmp ult i64 %offset.addr.029.i, %5
  br i1 %cmp2.i, label %if.then.i, label %if.else.i

if.then.i:                                        ; preds = %for.body.i
  %sub.i = sub nuw i64 %5, %offset.addr.029.i
  %sub6.i = sub i64 %bytes, %done.028.i
  %cond.i = tail call i64 @llvm.umin.i64(i64 %sub.i, i64 %sub6.i)
  %6 = load ptr, ptr %arrayidx.i, align 8
  %add.ptr.i = getelementptr i8, ptr %6, i64 %offset.addr.029.i
  tail call void @llvm.memset.p0.i64(ptr align 1 %add.ptr.i, i8 %3, i64 %cond.i, i1 false)
  %add.i = add i64 %cond.i, %done.028.i
  br label %for.inc.i

if.else.i:                                        ; preds = %for.body.i
  %sub13.i = sub nuw i64 %offset.addr.029.i, %5
  br label %for.inc.i

for.inc.i:                                        ; preds = %if.else.i, %if.then.i
  %done.1.i = phi i64 [ %add.i, %if.then.i ], [ %done.028.i, %if.else.i ]
  %offset.addr.1.i = phi i64 [ 0, %if.then.i ], [ %sub13.i, %if.else.i ]
  %indvars.iv.next.i = add nuw nsw i64 %indvars.iv.i, 1
  %tobool.not.i = icmp ne i64 %offset.addr.1.i, 0
  %cmp.i = icmp ult i64 %done.1.i, %bytes
  %or.cond.i = select i1 %tobool.not.i, i1 true, i1 %cmp.i
  %cmp1.i = icmp samesign ult i64 %indvars.iv.next.i, %4
  %or.cond21.i = select i1 %or.cond.i, i1 %cmp1.i, i1 false
  br i1 %or.cond21.i, label %for.body.i, label %for.end.i, !llvm.loop !8

for.end.i:                                        ; preds = %for.inc.i, %entry
  %done.0.lcssa.i = phi i64 [ 0, %entry ], [ %done.1.i, %for.inc.i ]
  %offset.addr.0.lcssa.i = phi i64 [ %offset, %entry ], [ %offset.addr.1.i, %for.inc.i ]
  %cmp14.i = icmp eq i64 %offset.addr.0.lcssa.i, 0
  br i1 %cmp14.i, label %iov_memset.exit, label %if.else16.i

if.else16.i:                                      ; preds = %for.end.i
  tail call void @__assert_fail(ptr noundef nonnull @.str, ptr noundef nonnull @.str.1, i32 noundef 77, ptr noundef nonnull @__PRETTY_FUNCTION__.iov_memset) #17
  unreachable

iov_memset.exit:                                  ; preds = %for.end.i
  ret i64 %done.0.lcssa.i
}